; ModuleID = '9/141.c'
source_filename = "9/141.c"
target datalayout = "e-m:e-p270:32:32-p271:32:32-p272:64:64-i64:64-f80:128-n8:16:32:64-S128"
target triple = "x86_64-pc-linux-gnu"

%struct.patient = type { [10 x i8], i32 }

@.str = private unnamed_addr constant [3 x i8] c"%d\00", align 1
@.str.1 = private unnamed_addr constant [3 x i8] c"%s\00", align 1
@p = common dso_local global [100 x %struct.patient] zeroinitializer, align 16
@old = common dso_local global [100 x %struct.patient] zeroinitializer, align 16
@temp = common dso_local global %struct.patient zeroinitializer, align 4
@.str.2 = private unnamed_addr constant [4 x i8] c"%s\0A\00", align 1

; Function Attrs: noinline nounwind uwtable
define dso_local void @main() #0 {
  %1 = alloca i32, align 4
  %2 = alloca i32, align 4
  %3 = alloca i32, align 4
  %4 = alloca i32, align 4
  store i32 0, i32* %4, align 4
  %5 = call i32 (i8*, ...) @__isoc99_scanf(i8* getelementptr inbounds ([3 x i8], [3 x i8]* @.str, i64 0, i64 0), i32* %3)
  store i32 0, i32* %1, align 4
  br label %6

6:                                                ; preds = %40, %0
  %7 = load i32, i32* %1, align 4
  %8 = load i32, i32* %3, align 4
  %9 = icmp slt i32 %7, %8
  br i1 %9, label %10, label %43

10:                                               ; preds = %6
  %11 = load i32, i32* %1, align 4
  %12 = sext i32 %11 to i64
  %13 = getelementptr inbounds [100 x %struct.patient], [100 x %struct.patient]* @p, i64 0, i64 %12
  %14 = getelementptr inbounds %struct.patient, %struct.patient* %13, i32 0, i32 0
  %15 = getelementptr inbounds [10 x i8], [10 x i8]* %14, i64 0, i64 0
  %16 = call i32 (i8*, ...) @__isoc99_scanf(i8* getelementptr inbounds ([3 x i8], [3 x i8]* @.str.1, i64 0, i64 0), i8* %15)
  %17 = load i32, i32* %1, align 4
  %18 = sext i32 %17 to i64
  %19 = getelementptr inbounds [100 x %struct.patient], [100 x %struct.patient]* @p, i64 0, i64 %18
  %20 = getelementptr inbounds %struct.patient, %struct.patient* %19, i32 0, i32 1
  %21 = call i32 (i8*, ...) @__isoc99_scanf(i8* getelementptr inbounds ([3 x i8], [3 x i8]* @.str, i64 0, i64 0), i32* %20)
  %22 = load i32, i32* %1, align 4
  %23 = sext i32 %22 to i64
  %24 = getelementptr inbounds [100 x %struct.patient], [100 x %struct.patient]* @p, i64 0, i64 %23
  %25 = getelementptr inbounds %struct.patient, %struct.patient* %24, i32 0, i32 1
  %26 = load i32, i32* %25, align 4
  %27 = icmp sge i32 %26, 60
  br i1 %27, label %28, label %39

28:                                               ; preds = %10
  %29 = load i32, i32* %4, align 4
  %30 = sext i32 %29 to i64
  %31 = getelementptr inbounds [100 x %struct.patient], [100 x %struct.patient]* @old, i64 0, i64 %30
  %32 = load i32, i32* %1, align 4
  %33 = sext i32 %32 to i64
  %34 = getelementptr inbounds [100 x %struct.patient], [100 x %struct.patient]* @p, i64 0, i64 %33
  %35 = bitcast %struct.patient* %31 to i8*
  %36 = bitcast %struct.patient* %34 to i8*
  call void @llvm.memcpy.p0i8.p0i8.i64(i8* align 16 %35, i8* align 16 %36, i64 16, i1 false)
  %37 = load i32, i32* %4, align 4
  %38 = add nsw i32 %37, 1
  store i32 %38, i32* %4, align 4
  br label %39

39:                                               ; preds = %28, %10
  br label %40

40:                                               ; preds = %39
  %41 = load i32, i32* %1, align 4
  %42 = add nsw i32 %41, 1
  store i32 %42, i32* %1, align 4
  br label %6

43:                                               ; preds = %6
  store i32 0, i32* %1, align 4
  br label %44

44:                                               ; preds = %92, %43
  %45 = load i32, i32* %1, align 4
  %46 = load i32, i32* %4, align 4
  %47 = icmp slt i32 %45, %46
  br i1 %47, label %48, label %95

48:                                               ; preds = %44
  store i32 0, i32* %2, align 4
  br label %49

49:                                               ; preds = %88, %48
  %50 = load i32, i32* %2, align 4
  %51 = load i32, i32* %4, align 4
  %52 = load i32, i32* %1, align 4
  %53 = sub nsw i32 %51, %52
  %54 = icmp slt i32 %50, %53
  br i1 %54, label %55, label %91

55:                                               ; preds = %49
  %56 = load i32, i32* %2, align 4
  %57 = add nsw i32 %56, 1
  %58 = sext i32 %57 to i64
  %59 = getelementptr inbounds [100 x %struct.patient], [100 x %struct.patient]* @old, i64 0, i64 %58
  %60 = getelementptr inbounds %struct.patient, %struct.patient* %59, i32 0, i32 1
  %61 = load i32, i32* %60, align 4
  %62 = load i32, i32* %2, align 4
  %63 = sext i32 %62 to i64
  %64 = getelementptr inbounds [100 x %struct.patient], [100 x %struct.patient]* @old, i64 0, i64 %63
  %65 = getelementptr inbounds %struct.patient, %struct.patient* %64, i32 0, i32 1
  %66 = load i32, i32* %65, align 4
  %67 = icmp sgt i32 %61, %66
  br i1 %67, label %68, label %87

68:                                               ; preds = %55
  %69 = load i32, i32* %2, align 4
  %70 = sext i32 %69 to i64
  %71 = getelementptr inbounds [100 x %struct.patient], [100 x %struct.patient]* @old, i64 0, i64 %70
  %72 = bitcast %struct.patient* %71 to i8*
  call void @llvm.memcpy.p0i8.p0i8.i64(i8* align 4 getelementptr inbounds (%struct.patient, %struct.patient* @temp, i32 0, i32 0, i32 0), i8* align 16 %72, i64 16, i1 false)
  %73 = load i32, i32* %2, align 4
  %74 = sext i32 %73 to i64
  %75 = getelementptr inbounds [100 x %struct.patient], [100 x %struct.patient]* @old, i64 0, i64 %74
  %76 = load i32, i32* %2, align 4
  %77 = add nsw i32 %76, 1
  %78 = sext i32 %77 to i64
  %79 = getelementptr inbounds [100 x %struct.patient], [100 x %struct.patient]* @old, i64 0, i64 %78
  %80 = bitcast %struct.patient* %75 to i8*
  %81 = bitcast %struct.patient* %79 to i8*
  call void @llvm.memcpy.p0i8.p0i8.i64(i8* align 16 %80, i8* align 16 %81, i64 16, i1 false)
  %82 = load i32, i32* %2, align 4
  %83 = add nsw i32 %82, 1
  %84 = sext i32 %83 to i64
  %85 = getelementptr inbounds [100 x %struct.patient], [100 x %struct.patient]* @old, i64 0, i64 %84
  %86 = bitcast %struct.patient* %85 to i8*
  call void @llvm.memcpy.p0i8.p0i8.i64(i8* align 16 %86, i8* align 4 getelementptr inbounds (%struct.patient, %struct.patient* @temp, i32 0, i32 0, i32 0), i64 16, i1 false)
  br label %87

87:                                               ; preds = %68, %55
  br label %88

88:                                               ; preds = %87
  %89 = load i32, i32* %2, align 4
  %90 = add nsw i32 %89, 1
  store i32 %90, i32* %2, align 4
  br label %49

91:                                               ; preds = %49
  br label %92

92:                                               ; preds = %91
  %93 = load i32, i32* %1, align 4
  %94 = add nsw i32 %93, 1
  store i32 %94, i32* %1, align 4
  br label %44

95:                                               ; preds = %44
  store i32 0, i32* %1, align 4
  br label %96

96:                                               ; preds = %107, %95
  %97 = load i32, i32* %1, align 4
  %98 = load i32, i32* %4, align 4
  %99 = icmp slt i32 %97, %98
  br i1 %99, label %100, label %110

100:                                              ; preds = %96
  %101 = load i32, i32* %1, align 4
  %102 = sext i32 %101 to i64
  %103 = getelementptr inbounds [100 x %struct.patient], [100 x %struct.patient]* @old, i64 0, i64 %102
  %104 = getelementptr inbounds %struct.patient, %struct.patient* %103, i32 0, i32 0
  %105 = getelementptr inbounds [10 x i8], [10 x i8]* %104, i64 0, i64 0
  %106 = call i32 (i8*, ...) @printf(i8* getelementptr inbounds ([4 x i8], [4 x i8]* @.str.2, i64 0, i64 0), i8* %105)
  br label %107

107:                                              ; preds = %100
  %108 = load i32, i32* %1, align 4
  %109 = add nsw i32 %108, 1
  store i32 %109, i32* %1, align 4
  br label %96

110:                                              ; preds = %96
  store i32 0, i32* %1, align 4
  br label %111

111:                                              ; preds = %130, %110
  %112 = load i32, i32* %1, align 4
  %113 = load i32, i32* %3, align 4
  %114 = icmp slt i32 %112, %113
  br i1 %114, label %115, label %133

115:                                              ; preds = %111
  %116 = load i32, i32* %1, align 4
  %117 = sext i32 %116 to i64
  %118 = getelementptr inbounds [100 x %struct.patient], [100 x %struct.patient]* @p, i64 0, i64 %117
  %119 = getelementptr inbounds %struct.patient, %struct.patient* %118, i32 0, i32 1
  %120 = load i32, i32* %119, align 4
  %121 = icmp slt i32 %120, 60
  br i1 %121, label %122, label %129

122:                                              ; preds = %115
  %123 = load i32, i32* %1, align 4
  %124 = sext i32 %123 to i64
  %125 = getelementptr inbounds [100 x %struct.patient], [100 x %struct.patient]* @p, i64 0, i64 %124
  %126 = getelementptr inbounds %struct.patient, %struct.patient* %125, i32 0, i32 0
  %127 = getelementptr inbounds [10 x i8], [10 x i8]* %126, i64 0, i64 0
  %128 = call i32 (i8*, ...) @printf(i8* getelementptr inbounds ([4 x i8], [4 x i8]* @.str.2, i64 0, i64 0), i8* %127)
  br label %129

129:                                              ; preds = %122, %115
  br label %130

130:                                              ; preds = %129
  %131 = load i32, i32* %1, align 4
  %132 = add nsw i32 %131, 1
  store i32 %132, i32* %1, align 4
  br label %111

133:                                              ; preds = %111
  ret void
}

declare dso_local i32 @__isoc99_scanf(i8*, ...) #1

; Function Attrs: argmemonly nounwind willreturn
declare void @llvm.memcpy.p0i8.p0i8.i64(i8* noalias nocapture writeonly, i8* noalias nocapture readonly, i64, i1 immarg) #2

declare dso_local i32 @printf(i8*, ...) #1


!llvm.module.flags = !{!0}
!llvm.ident = !{!1}

!0 = !{i32 1, !"wchar_size", i32 4}
!1 = !{!"clang version 10.0.0-4ubuntu1 "}
